target datalayout = "e-m:e-p270:32:32-p271:32:32-p272:64:64-i64:64-i128:128-f80:128-n8:16:32:64-S128"
target triple = "x86_64-pc-linux-gnu"

%"class.cv::MatExpr" = type { ptr, i32, %"class.cv::Mat", %"class.cv::Mat", %"class.cv::Mat", double, double, %"class.cv::Scalar_" }
%"class.cv::Mat" = type { i32, i32, i32, i32, ptr, ptr, ptr, ptr, ptr, ptr, %"struct.cv::MatSize", %"struct.cv::MatStep" }
%"struct.cv::MatSize" = type { ptr }
%"struct.cv::MatStep" = type { ptr, [2 x i64] }
%"class.cv::Scalar_" = type { %"class.cv::Vec" }
%"class.cv::Vec" = type { %"class.cv::Matx" }
%"class.cv::Matx" = type { [4 x double] }
%class.PnPProblem = type { ptr, %"class.cv::Mat", %"class.cv::Mat", %"class.cv::Mat", %"class.cv::Mat" }

@_ZTV10PnPProblem = hidden unnamed_addr constant { [4 x ptr] } { [4 x ptr] [ptr null, ptr @_ZTI10PnPProblem, ptr @_ZN10PnPProblemD1Ev, ptr @_ZN10PnPProblemD0Ev] }, align 8

; Function Attrs: mustprogress nounwind uwtable
define linkonce_odr hidden noundef nonnull align 8 dereferenceable(8) ptr @_ZN2cv3Mat2atIdEERT_ii(ptr noundef nonnull align 8 dereferenceable(96) %0, i32 noundef %1, i32 noundef %2) #5 comdat align 2 {
  %4 = alloca ptr, align 8
  %5 = alloca i32, align 4
  %6 = alloca i32, align 4
  store ptr %0, ptr %4, align 8
  store i32 %1, ptr %5, align 4
  store i32 %2, ptr %6, align 4
  %7 = load ptr, ptr %4, align 8
  %8 = getelementptr inbounds %"class.cv::Mat", ptr %7, i32 0, i32 4
  %9 = load ptr, ptr %8, align 8
  %10 = getelementptr inbounds %"class.cv::Mat", ptr %7, i32 0, i32 11
  %11 = getelementptr inbounds %"struct.cv::MatStep", ptr %10, i32 0, i32 0
  %12 = load ptr, ptr %11, align 8
  %13 = getelementptr inbounds i64, ptr %12, i64 0
  %14 = load i64, ptr %13, align 8
  %15 = load i32, ptr %5, align 4
  %16 = sext i32 %15 to i64
  %17 = mul i64 %14, %16
  %18 = getelementptr inbounds i8, ptr %9, i64 %17
  %19 = load i32, ptr %6, align 4
  %20 = sext i32 %19 to i64
  %21 = getelementptr inbounds double, ptr %18, i64 %20
  ret ptr %21
}

; Function Attrs: mustprogress uwtable
define linkonce_odr hidden noundef nonnull align 8 dereferenceable(96) ptr @_ZN2cv3MataSERKNS_7MatExprE(ptr noundef nonnull align 8 dereferenceable(96) %0, ptr noundef nonnull align 8 dereferenceable(352) %1) #4 comdat align 2 {
  %3 = alloca ptr, align 8
  %4 = alloca ptr, align 8
  store ptr %0, ptr %3, align 8
  store ptr %1, ptr %4, align 8
  %5 = load ptr, ptr %3, align 8
  %6 = load ptr, ptr %4, align 8
  %7 = getelementptr inbounds %"class.cv::MatExpr", ptr %6, i32 0, i32 0
  %8 = load ptr, ptr %7, align 8
  %9 = load ptr, ptr %4, align 8
  %10 = load ptr, ptr %8, align 8
  %11 = getelementptr inbounds ptr, ptr %10, i64 3
  %12 = load ptr, ptr %11, align 8
  call void %12(ptr noundef nonnull align 8 dereferenceable(8) %8, ptr noundef nonnull align 8 dereferenceable(352) %9, ptr noundef nonnull align 8 dereferenceable(96) %5, i32 noundef -1)
  ret ptr %5
}

; Function Attrs: mustprogress uwtable
define hidden void @_ZN10PnPProblemC2EPKd(ptr noundef nonnull align 8 dereferenceable(392) %0, ptr noundef %1) unnamed_addr #4 align 2 personality ptr @__gxx_personality_v0 {
  %3 = alloca ptr, align 8
  %4 = alloca ptr, align 8
  %5 = alloca %"class.cv::MatExpr", align 8
  %6 = alloca ptr, align 8
  %7 = alloca i32, align 4
  %8 = alloca %"class.cv::MatExpr", align 8
  %9 = alloca %"class.cv::MatExpr", align 8
  %10 = alloca %"class.cv::MatExpr", align 8
  store ptr %0, ptr %3, align 8
  store ptr %1, ptr %4, align 8
  %11 = load ptr, ptr %3, align 8
  store ptr getelementptr inbounds inrange(-16, 16) ({ [4 x ptr] }, ptr @_ZTV10PnPProblem, i32 0, i32 0, i32 2), ptr %11, align 8
  %12 = getelementptr inbounds %class.PnPProblem, ptr %11, i32 0, i32 1
  call void @_ZN2cv3MatC1Ev(ptr noundef nonnull align 8 dereferenceable(96) %12) #3
  %13 = getelementptr inbounds %class.PnPProblem, ptr %11, i32 0, i32 2
  call void @_ZN2cv3MatC1Ev(ptr noundef nonnull align 8 dereferenceable(96) %13) #3
  %14 = getelementptr inbounds %class.PnPProblem, ptr %11, i32 0, i32 3
  call void @_ZN2cv3MatC1Ev(ptr noundef nonnull align 8 dereferenceable(96) %14) #3
  %15 = getelementptr inbounds %class.PnPProblem, ptr %11, i32 0, i32 4
  call void @_ZN2cv3MatC1Ev(ptr noundef nonnull align 8 dereferenceable(96) %15) #3
  invoke void @_ZN2cv3Mat5zerosEiii(ptr dead_on_unwind writable sret(%"class.cv::MatExpr") align 8 %5, i32 noundef 3, i32 noundef 3, i32 noundef 6)
          to label %16 unwind label %59

16:                                               ; preds = %2
  %17 = getelementptr inbounds %class.PnPProblem, ptr %11, i32 0, i32 1
  %18 = invoke noundef nonnull align 8 dereferenceable(96) ptr @_ZN2cv3MataSERKNS_7MatExprE(ptr noundef nonnull align 8 dereferenceable(96) %17, ptr noundef nonnull align 8 dereferenceable(352) %5)
          to label %19 unwind label %63

19:                                               ; preds = %16
  call void @_ZN2cv7MatExprD2Ev(ptr noundef nonnull align 8 dereferenceable(352) %5) #3
  %20 = load ptr, ptr %4, align 8
  %21 = getelementptr inbounds double, ptr %20, i64 0
  %22 = load double, ptr %21, align 8
  %23 = getelementptr inbounds %class.PnPProblem, ptr %11, i32 0, i32 1
  %24 = invoke noundef nonnull align 8 dereferenceable(8) ptr @_ZN2cv3Mat2atIdEERT_ii(ptr noundef nonnull align 8 dereferenceable(96) %23, i32 noundef 0, i32 noundef 0)
          to label %25 unwind label %59

25:                                               ; preds = %19
  store double %22, ptr %24, align 8
  %26 = load ptr, ptr %4, align 8
  %27 = getelementptr inbounds double, ptr %26, i64 1
  %28 = load double, ptr %27, align 8
  %29 = getelementptr inbounds %class.PnPProblem, ptr %11, i32 0, i32 1
  %30 = invoke noundef nonnull align 8 dereferenceable(8) ptr @_ZN2cv3Mat2atIdEERT_ii(ptr noundef nonnull align 8 dereferenceable(96) %29, i32 noundef 1, i32 noundef 1)
          to label %31 unwind label %59

31:                                               ; preds = %25
  store double %28, ptr %30, align 8
  %32 = load ptr, ptr %4, align 8
  %33 = getelementptr inbounds double, ptr %32, i64 2
  %34 = load double, ptr %33, align 8
  %35 = getelementptr inbounds %class.PnPProblem, ptr %11, i32 0, i32 1
  %36 = invoke noundef nonnull align 8 dereferenceable(8) ptr @_ZN2cv3Mat2atIdEERT_ii(ptr noundef nonnull align 8 dereferenceable(96) %35, i32 noundef 0, i32 noundef 2)
          to label %37 unwind label %59

37:                                               ; preds = %31
  store double %34, ptr %36, align 8
  %38 = load ptr, ptr %4, align 8
  %39 = getelementptr inbounds double, ptr %38, i64 3
  %40 = load double, ptr %39, align 8
  %41 = getelementptr inbounds %class.PnPProblem, ptr %11, i32 0, i32 1
  %42 = invoke noundef nonnull align 8 dereferenceable(8) ptr @_ZN2cv3Mat2atIdEERT_ii(ptr noundef nonnull align 8 dereferenceable(96) %41, i32 noundef 1, i32 noundef 2)
          to label %43 unwind label %59

43:                                               ; preds = %37
  store double %40, ptr %42, align 8
  %44 = getelementptr inbounds %class.PnPProblem, ptr %11, i32 0, i32 1
  %45 = invoke noundef nonnull align 8 dereferenceable(8) ptr @_ZN2cv3Mat2atIdEERT_ii(ptr noundef nonnull align 8 dereferenceable(96) %44, i32 noundef 2, i32 noundef 2)
          to label %46 unwind label %59

46:                                               ; preds = %43
  store double 1.000000e+00, ptr %45, align 8
  invoke void @_ZN2cv3Mat5zerosEiii(ptr dead_on_unwind writable sret(%"class.cv::MatExpr") align 8 %8, i32 noundef 3, i32 noundef 3, i32 noundef 6)
          to label %47 unwind label %59

47:                                               ; preds = %46
  %48 = getelementptr inbounds %class.PnPProblem, ptr %11, i32 0, i32 2
  %49 = invoke noundef nonnull align 8 dereferenceable(96) ptr @_ZN2cv3MataSERKNS_7MatExprE(ptr noundef nonnull align 8 dereferenceable(96) %48, ptr noundef nonnull align 8 dereferenceable(352) %8)
          to label %50 unwind label %67

50:                                               ; preds = %47
  call void @_ZN2cv7MatExprD2Ev(ptr noundef nonnull align 8 dereferenceable(352) %8) #3
  invoke void @_ZN2cv3Mat5zerosEiii(ptr dead_on_unwind writable sret(%"class.cv::MatExpr") align 8 %9, i32 noundef 3, i32 noundef 1, i32 noundef 6)
          to label %51 unwind label %59

51:                                               ; preds = %50
  %52 = getelementptr inbounds %class.PnPProblem, ptr %11, i32 0, i32 3
  %53 = invoke noundef nonnull align 8 dereferenceable(96) ptr @_ZN2cv3MataSERKNS_7MatExprE(ptr noundef nonnull align 8 dereferenceable(96) %52, ptr noundef nonnull align 8 dereferenceable(352) %9)
          to label %54 unwind label %71

54:                                               ; preds = %51
  call void @_ZN2cv7MatExprD2Ev(ptr noundef nonnull align 8 dereferenceable(352) %9) #3
  invoke void @_ZN2cv3Mat5zerosEiii(ptr dead_on_unwind writable sret(%"class.cv::MatExpr") align 8 %10, i32 noundef 3, i32 noundef 4, i32 noundef 6)
          to label %55 unwind label %59

55:                                               ; preds = %54
  %56 = getelementptr inbounds %class.PnPProblem, ptr %11, i32 0, i32 4
  %57 = invoke noundef nonnull align 8 dereferenceable(96) ptr @_ZN2cv3MataSERKNS_7MatExprE(ptr noundef nonnull align 8 dereferenceable(96) %56, ptr noundef nonnull align 8 dereferenceable(352) %10)
          to label %58 unwind label %75

58:                                               ; preds = %55
  call void @_ZN2cv7MatExprD2Ev(ptr noundef nonnull align 8 dereferenceable(352) %10) #3
  ret void

59:                                               ; preds = %54, %50, %46, %43, %37, %31, %25, %19, %2
  %60 = landingpad { ptr, i32 }
          cleanup
  %61 = extractvalue { ptr, i32 } %60, 0
  store ptr %61, ptr %6, align 8
  %62 = extractvalue { ptr, i32 } %60, 1
  store i32 %62, ptr %7, align 4
  br label %79

63:                                               ; preds = %16
  %64 = landingpad { ptr, i32 }
          cleanup
  %65 = extractvalue { ptr, i32 } %64, 0
  store ptr %65, ptr %6, align 8
  %66 = extractvalue { ptr, i32 } %64, 1
  store i32 %66, ptr %7, align 4
  call void @_ZN2cv7MatExprD2Ev(ptr noundef nonnull align 8 dereferenceable(352) %5) #3
  br label %79

67:                                               ; preds = %47
  %68 = landingpad { ptr, i32 }
          cleanup
  %69 = extractvalue { ptr, i32 } %68, 0
  store ptr %69, ptr %6, align 8
  %70 = extractvalue { ptr, i32 } %68, 1
  store i32 %70, ptr %7, align 4
  call void @_ZN2cv7MatExprD2Ev(ptr noundef nonnull align 8 dereferenceable(352) %8) #3
  br label %79

71:                                               ; preds = %51
  %72 = landingpad { ptr, i32 }
          cleanup
  %73 = extractvalue { ptr, i32 } %72, 0
  store ptr %73, ptr %6, align 8
  %74 = extractvalue { ptr, i32 } %72, 1
  store i32 %74, ptr %7, align 4
  call void @_ZN2cv7MatExprD2Ev(ptr noundef nonnull align 8 dereferenceable(352) %9) #3
  br label %79

75:                                               ; preds = %55
  %76 = landingpad { ptr, i32 }
          cleanup
  %77 = extractvalue { ptr, i32 } %76, 0
  store ptr %77, ptr %6, align 8
  %78 = extractvalue { ptr, i32 } %76, 1
  store i32 %78, ptr %7, align 4
  call void @_ZN2cv7MatExprD2Ev(ptr noundef nonnull align 8 dereferenceable(352) %10) #3
  br label %79

79:                                               ; preds = %75, %71, %67, %63, %59
  call void @_ZN2cv3MatD1Ev(ptr noundef nonnull align 8 dereferenceable(96) %15) #3
  call void @_ZN2cv3MatD1Ev(ptr noundef nonnull align 8 dereferenceable(96) %14) #3
  call void @_ZN2cv3MatD1Ev(ptr noundef nonnull align 8 dereferenceable(96) %13) #3
  call void @_ZN2cv3MatD1Ev(ptr noundef nonnull align 8 dereferenceable(96) %12) #3
  br label %80

80:                                               ; preds = %79
  %81 = load ptr, ptr %6, align 8
  %82 = load i32, ptr %7, align 4
  %83 = insertvalue { ptr, i32 } poison, ptr %81, 0
  %84 = insertvalue { ptr, i32 } %83, i32 %82, 1
  resume { ptr, i32 } %84
}