; Function Attrs: mustprogress uwtable
define hidden void @_ZN10PnPProblemC2EPKd(ptr noundef nonnull align 8 dereferenceable(392) %0, ptr nocapture noundef readonly %1) unnamed_addr #3 align 2 personality ptr @__gxx_personality_v0 {
  %3 = alloca %"class.cv::MatExpr", align 8
  %4 = alloca %"class.cv::MatExpr", align 8
  %5 = alloca %"class.cv::MatExpr", align 8
  %6 = alloca %"class.cv::MatExpr", align 8
  store ptr getelementptr inbounds inrange(-16, 16) (i8, ptr @_ZTV10PnPProblem, i64 16), ptr %0, align 8
  %7 = getelementptr inbounds i8, ptr %0, i64 8
  tail call void @_ZN2cv3MatC1Ev(ptr noundef nonnull align 8 dereferenceable(96) %7) #18
  %8 = getelementptr inbounds i8, ptr %0, i64 104
  tail call void @_ZN2cv3MatC1Ev(ptr noundef nonnull align 8 dereferenceable(96) %8) #18
  %9 = getelementptr inbounds i8, ptr %0, i64 200
  tail call void @_ZN2cv3MatC1Ev(ptr noundef nonnull align 8 dereferenceable(96) %9) #18
  %10 = getelementptr inbounds i8, ptr %0, i64 296
  tail call void @_ZN2cv3MatC1Ev(ptr noundef nonnull align 8 dereferenceable(96) %10) #18
  invoke void @_ZN2cv3Mat5zerosEiii(ptr dead_on_unwind nonnull writable sret(%"class.cv::MatExpr") align 8 %3, i32 noundef 3, i32 noundef 3, i32 noundef 6)
          to label %11 unwind label %71

11:                                               ; preds = %2
  %12 = load ptr, ptr %3, align 8
  %13 = load ptr, ptr %12, align 8
  %14 = getelementptr inbounds i8, ptr %13, i64 24
  %15 = load ptr, ptr %14, align 8
  invoke void %15(ptr noundef nonnull align 8 dereferenceable(8) %12, ptr noundef nonnull align 8 dereferenceable(352) %3, ptr noundef nonnull align 8 dereferenceable(96) %7, i32 noundef -1)
          to label %_ZN2cv3MataSERKNS_7MatExprE.exit unwind label %73

_ZN2cv3MataSERKNS_7MatExprE.exit:                 ; preds = %11
  %16 = getelementptr inbounds i8, ptr %3, i64 208
  call void @_ZN2cv3MatD1Ev(ptr noundef nonnull align 8 dereferenceable(96) %16) #18
  %17 = getelementptr inbounds i8, ptr %3, i64 112
  call void @_ZN2cv3MatD1Ev(ptr noundef nonnull align 8 dereferenceable(96) %17) #18
  %18 = getelementptr inbounds i8, ptr %3, i64 16
  call void @_ZN2cv3MatD1Ev(ptr noundef nonnull align 8 dereferenceable(96) %18) #18
  %19 = load double, ptr %1, align 8
  %20 = getelementptr inbounds i8, ptr %0, i64 24
  %21 = load ptr, ptr %20, align 8
  %22 = getelementptr inbounds i8, ptr %0, i64 80
  store double %19, ptr %21, align 8
  %23 = getelementptr inbounds i8, ptr %1, i64 8
  %24 = load double, ptr %23, align 8
  %25 = load ptr, ptr %20, align 8
  %26 = load ptr, ptr %22, align 8
  %27 = load i64, ptr %26, align 8
  %28 = getelementptr inbounds i8, ptr %25, i64 %27
  %29 = getelementptr inbounds i8, ptr %28, i64 8
  store double %24, ptr %29, align 8
  %30 = getelementptr inbounds i8, ptr %1, i64 16
  %31 = load double, ptr %30, align 8
  %32 = load ptr, ptr %20, align 8
  %33 = getelementptr inbounds i8, ptr %32, i64 16
  store double %31, ptr %33, align 8
  %34 = getelementptr inbounds i8, ptr %1, i64 24
  %35 = load double, ptr %34, align 8
  %36 = load ptr, ptr %20, align 8
  %37 = load ptr, ptr %22, align 8
  %38 = load i64, ptr %37, align 8
  %39 = getelementptr inbounds i8, ptr %36, i64 %38
  %40 = getelementptr inbounds i8, ptr %39, i64 16
  store double %35, ptr %40, align 8
  %41 = load ptr, ptr %20, align 8
  %42 = load ptr, ptr %22, align 8
  %43 = load i64, ptr %42, align 8
  %44 = shl i64 %43, 1
  %45 = getelementptr inbounds i8, ptr %41, i64 %44
  %46 = getelementptr inbounds i8, ptr %45, i64 16
  store double 1.000000e+00, ptr %46, align 8
  invoke void @_ZN2cv3Mat5zerosEiii(ptr dead_on_unwind nonnull writable sret(%"class.cv::MatExpr") align 8 %4, i32 noundef 3, i32 noundef 3, i32 noundef 6)
          to label %47 unwind label %71

47:                                               ; preds = %_ZN2cv3MataSERKNS_7MatExprE.exit
  %48 = load ptr, ptr %4, align 8
  %49 = load ptr, ptr %48, align 8
  %50 = getelementptr inbounds i8, ptr %49, i64 24
  %51 = load ptr, ptr %50, align 8
  invoke void %51(ptr noundef nonnull align 8 dereferenceable(8) %48, ptr noundef nonnull align 8 dereferenceable(352) %4, ptr noundef nonnull align 8 dereferenceable(96) %8, i32 noundef -1)
          to label %_ZN2cv3MataSERKNS_7MatExprE.exit8 unwind label %75

_ZN2cv3MataSERKNS_7MatExprE.exit8:                ; preds = %47
  %52 = getelementptr inbounds i8, ptr %4, i64 208
  call void @_ZN2cv3MatD1Ev(ptr noundef nonnull align 8 dereferenceable(96) %52) #18
  %53 = getelementptr inbounds i8, ptr %4, i64 112
  call void @_ZN2cv3MatD1Ev(ptr noundef nonnull align 8 dereferenceable(96) %53) #18
  %54 = getelementptr inbounds i8, ptr %4, i64 16
  call void @_ZN2cv3MatD1Ev(ptr noundef nonnull align 8 dereferenceable(96) %54) #18
  invoke void @_ZN2cv3Mat5zerosEiii(ptr dead_on_unwind nonnull writable sret(%"class.cv::MatExpr") align 8 %5, i32 noundef 3, i32 noundef 1, i32 noundef 6)
          to label %55 unwind label %71

55:                                               ; preds = %_ZN2cv3MataSERKNS_7MatExprE.exit8
  %56 = load ptr, ptr %5, align 8
  %57 = load ptr, ptr %56, align 8
  %58 = getelementptr inbounds i8, ptr %57, i64 24
  %59 = load ptr, ptr %58, align 8
  invoke void %59(ptr noundef nonnull align 8 dereferenceable(8) %56, ptr noundef nonnull align 8 dereferenceable(352) %5, ptr noundef nonnull align 8 dereferenceable(96) %9, i32 noundef -1)
          to label %_ZN2cv3MataSERKNS_7MatExprE.exit9 unwind label %77

_ZN2cv3MataSERKNS_7MatExprE.exit9:                ; preds = %55
  %60 = getelementptr inbounds i8, ptr %5, i64 208
  call void @_ZN2cv3MatD1Ev(ptr noundef nonnull align 8 dereferenceable(96) %60) #18
  %61 = getelementptr inbounds i8, ptr %5, i64 112
  call void @_ZN2cv3MatD1Ev(ptr noundef nonnull align 8 dereferenceable(96) %61) #18
  %62 = getelementptr inbounds i8, ptr %5, i64 16
  call void @_ZN2cv3MatD1Ev(ptr noundef nonnull align 8 dereferenceable(96) %62) #18
  invoke void @_ZN2cv3Mat5zerosEiii(ptr dead_on_unwind nonnull writable sret(%"class.cv::MatExpr") align 8 %6, i32 noundef 3, i32 noundef 4, i32 noundef 6)
          to label %63 unwind label %71

63:                                               ; preds = %_ZN2cv3MataSERKNS_7MatExprE.exit9
  %64 = load ptr, ptr %6, align 8
  %65 = load ptr, ptr %64, align 8
  %66 = getelementptr inbounds i8, ptr %65, i64 24
  %67 = load ptr, ptr %66, align 8
  invoke void %67(ptr noundef nonnull align 8 dereferenceable(8) %64, ptr noundef nonnull align 8 dereferenceable(352) %6, ptr noundef nonnull align 8 dereferenceable(96) %10, i32 noundef -1)
          to label %_ZN2cv3MataSERKNS_7MatExprE.exit10 unwind label %79

_ZN2cv3MataSERKNS_7MatExprE.exit10:               ; preds = %63
  %68 = getelementptr inbounds i8, ptr %6, i64 208
  call void @_ZN2cv3MatD1Ev(ptr noundef nonnull align 8 dereferenceable(96) %68) #18
  %69 = getelementptr inbounds i8, ptr %6, i64 112
  call void @_ZN2cv3MatD1Ev(ptr noundef nonnull align 8 dereferenceable(96) %69) #18
  %70 = getelementptr inbounds i8, ptr %6, i64 16
  call void @_ZN2cv3MatD1Ev(ptr noundef nonnull align 8 dereferenceable(96) %70) #18
  ret void

71:                                               ; preds = %_ZN2cv3MataSERKNS_7MatExprE.exit9, %_ZN2cv3MataSERKNS_7MatExprE.exit8, %_ZN2cv3MataSERKNS_7MatExprE.exit, %2
  %72 = landingpad { ptr, i32 }
          cleanup
  br label %81

73:                                               ; preds = %11
  %74 = landingpad { ptr, i32 }
          cleanup
  call void @_ZN2cv7MatExprD2Ev(ptr noundef nonnull align 8 dereferenceable(352) %3) #18
  br label %81

75:                                               ; preds = %47
  %76 = landingpad { ptr, i32 }
          cleanup
  call void @_ZN2cv7MatExprD2Ev(ptr noundef nonnull align 8 dereferenceable(352) %4) #18
  br label %81

77:                                               ; preds = %55
  %78 = landingpad { ptr, i32 }
          cleanup
  call void @_ZN2cv7MatExprD2Ev(ptr noundef nonnull align 8 dereferenceable(352) %5) #18
  br label %81

79:                                               ; preds = %63
  %80 = landingpad { ptr, i32 }
          cleanup
  call void @_ZN2cv7MatExprD2Ev(ptr noundef nonnull align 8 dereferenceable(352) %6) #18
  br label %81

81:                                               ; preds = %79, %77, %75, %73, %71
  %.pn = phi { ptr, i32 } [ %80, %79 ], [ %72, %71 ], [ %78, %77 ], [ %76, %75 ], [ %74, %73 ]
  call void @_ZN2cv3MatD1Ev(ptr noundef nonnull align 8 dereferenceable(96) %10) #18
  call void @_ZN2cv3MatD1Ev(ptr noundef nonnull align 8 dereferenceable(96) %9) #18
  call void @_ZN2cv3MatD1Ev(ptr noundef nonnull align 8 dereferenceable(96) %8) #18
  call void @_ZN2cv3MatD1Ev(ptr noundef nonnull align 8 dereferenceable(96) %7) #18
  resume { ptr, i32 } %.pn
}